target datalayout = "e-m:e-p270:32:32-p271:32:32-p272:64:64-i64:64-i128:128-f80:128-n8:16:32:64-S128"
target triple = "x86_64-pc-linux-gnu"

%struct.pw_cb_data = type { ptr, ptr }

@ui_base_method = internal global ptr null, align 8

; Function Attrs: nounwind uwtable
define internal i32 @ui_write(ptr noundef %0, ptr noundef %1) #0 {
  %3 = alloca i32, align 4
  %4 = alloca ptr, align 8
  %5 = alloca ptr, align 8
  %6 = alloca ptr, align 8
  %7 = alloca ptr, align 8
  %8 = alloca i32, align 4
  store ptr %0, ptr %4, align 8, !tbaa !9
  store ptr %1, ptr %5, align 8, !tbaa !12
  call void @llvm.lifetime.start.p0(i64 8, ptr %6) #5
  store ptr null, ptr %6, align 8, !tbaa !11
  %9 = load ptr, ptr %5, align 8, !tbaa !12
  %10 = call i32 @UI_get_input_flags(ptr noundef %9)
  %11 = and i32 %10, 2
  %12 = icmp ne i32 %11, 0
  br i1 %12, label %13, label %34

13:                                               ; preds = %2
  %14 = load ptr, ptr %4, align 8, !tbaa !9
  %15 = call ptr @UI_get0_user_data(ptr noundef %14)
  %16 = icmp ne ptr %15, null
  br i1 %16, label %17, label %34

17:                                               ; preds = %13
  %18 = load ptr, ptr %5, align 8, !tbaa !12
  %19 = call i32 @UI_get_string_type(ptr noundef %18)
  switch i32 %19, label %33 [
    i32 1, label %20
    i32 2, label %20
    i32 0, label %32
    i32 3, label %32
    i32 4, label %32
    i32 5, label %32
  ]

20:                                               ; preds = %17, %17
  call void @llvm.lifetime.start.p0(i64 8, ptr %7) #5
  %21 = load ptr, ptr %4, align 8, !tbaa !9
  %22 = call ptr @UI_get0_user_data(ptr noundef %21)
  %23 = getelementptr inbounds nuw %struct.pw_cb_data, ptr %22, i32 0, i32 0
  %24 = load ptr, ptr %23, align 8, !tbaa !14
  store ptr %24, ptr %7, align 8, !tbaa !17
  %25 = load ptr, ptr %7, align 8, !tbaa !17
  %26 = icmp ne ptr %25, null
  br i1 %26, label %27, label %28

27:                                               ; preds = %20
  store i32 1, ptr %3, align 4
  store i32 1, ptr %8, align 4
  br label %29

28:                                               ; preds = %20
  store i32 0, ptr %8, align 4
  br label %29

29:                                               ; preds = %28, %27
  call void @llvm.lifetime.end.p0(i64 8, ptr %7) #5
  %30 = load i32, ptr %8, align 4
  switch i32 %30, label %45 [
    i32 0, label %31
  ]

31:                                               ; preds = %29
  br label %33

32:                                               ; preds = %17, %17, %17, %17
  br label %33

33:                                               ; preds = %17, %32, %31
  br label %34

34:                                               ; preds = %33, %13, %2
  %35 = load ptr, ptr @ui_base_method, align 8, !tbaa !4
  %36 = call ptr @UI_method_get_writer(ptr noundef %35)
  store ptr %36, ptr %6, align 8, !tbaa !11
  %37 = load ptr, ptr %6, align 8, !tbaa !11
  %38 = icmp ne ptr %37, null
  br i1 %38, label %39, label %44

39:                                               ; preds = %34
  %40 = load ptr, ptr %6, align 8, !tbaa !11
  %41 = load ptr, ptr %4, align 8, !tbaa !9
  %42 = load ptr, ptr %5, align 8, !tbaa !12
  %43 = call i32 %40(ptr noundef %41, ptr noundef %42)
  store i32 %43, ptr %3, align 4
  store i32 1, ptr %8, align 4
  br label %45

44:                                               ; preds = %34
  store i32 1, ptr %3, align 4
  store i32 1, ptr %8, align 4
  br label %45

45:                                               ; preds = %44, %39, %29
  call void @llvm.lifetime.end.p0(i64 8, ptr %6) #5
  %46 = load i32, ptr %3, align 4
  ret i32 %46
}