; Function Attrs: nounwind uwtable
define internal i32 @ui_write(ptr noundef %0, ptr noundef %1) #0 {
  %3 = tail call i32 @UI_get_input_flags(ptr noundef %1) #5
  %4 = and i32 %3, 2
  %.not = icmp eq i32 %4, 0
  br i1 %.not, label %12, label %5

5:                                                ; preds = %2
  %6 = tail call ptr @UI_get0_user_data(ptr noundef %0) #5
  %.not12 = icmp eq ptr %6, null
  br i1 %.not12, label %12, label %7

7:                                                ; preds = %5
  %8 = tail call i32 @UI_get_string_type(ptr noundef %1) #5
  %.off = add i32 %8, -1
  %switch = icmp ult i32 %.off, 2
  br i1 %switch, label %9, label %12

9:                                                ; preds = %7
  %10 = tail call ptr @UI_get0_user_data(ptr noundef %0) #5
  %11 = load ptr, ptr %10, align 8, !tbaa !9
  %.not13 = icmp eq ptr %11, null
  br i1 %.not13, label %12, label %17

12:                                               ; preds = %7, %9, %5, %2
  %13 = load ptr, ptr @ui_base_method, align 8, !tbaa !4
  %14 = tail call ptr @UI_method_get_writer(ptr noundef %13) #5
  %.not14 = icmp eq ptr %14, null
  br i1 %.not14, label %17, label %15

15:                                               ; preds = %12
  %16 = tail call i32 %14(ptr noundef %0, ptr noundef %1) #5
  br label %17

17:                                               ; preds = %12, %9, %15
  %.1 = phi i32 [ %16, %15 ], [ 1, %9 ], [ 1, %12 ]
  ret i32 %.1
}